target datalayout = "e-m:e-p270:32:32-p271:32:32-p272:64:64-i64:64-i128:128-f80:128-n8:16:32:64-S128"
target triple = "x86_64-pc-linux-gnu"

%"struct.mitsuba::Struct::Field" = type { %"class.std::__1::basic_string", i32, i64, i64, i32, double, %"class.std::__1::vector.9" }
%"class.std::__1::basic_string" = type { %"class.std::__1::__compressed_pair.2" }
%"class.std::__1::__compressed_pair.2" = type { %"struct.std::__1::__compressed_pair_elem.3" }
%"struct.std::__1::__compressed_pair_elem.3" = type { %"struct.std::__1::basic_string<char>::__rep" }
%"struct.std::__1::basic_string<char>::__rep" = type { %union.anon }
%union.anon = type { %"struct.std::__1::basic_string<char>::__long" }
%"struct.std::__1::basic_string<char>::__long" = type { %struct.anon.4, i64, ptr }
%struct.anon.4 = type { i64 }
%"class.std::__1::vector.9" = type { ptr, ptr, %"class.std::__1::__compressed_pair.10" }
%"class.std::__1::__compressed_pair.10" = type { %"struct.std::__1::__compressed_pair_elem.11" }
%"struct.std::__1::__compressed_pair_elem.11" = type { ptr }
%"struct.std::__1::hash" = type { i8 }
%"struct.std::__1::hash.113" = type { i8 }
%"struct.std::__1::hash.115" = type { i8 }
%"struct.std::__1::hash.117" = type { i8 }
%"struct.std::__1::basic_string<char>::__short" = type { %struct.anon, [0 x i8], [23 x i8] }
%struct.anon = type { i8 }
%"struct.std::__1::__murmur2_or_cityhash" = type { i8 }
%union.anon.119 = type { double }

; Function Attrs: mustprogress nounwind uwtable
define linkonce_odr hidden noundef nonnull align 8 dereferenceable(24) ptr @_ZNKSt3__122__compressed_pair_elemINS_12basic_stringIcNS_11char_traitsIcEENS_9allocatorIcEEE5__repELi0ELb0EE5__getB8ne190000Ev(ptr noundef nonnull align 8 dereferenceable(24) %0) #1 comdat align 2 {
  %2 = alloca ptr, align 8
  store ptr %0, ptr %2, align 8
  %3 = load ptr, ptr %2, align 8
  %4 = getelementptr inbounds %"struct.std::__1::__compressed_pair_elem.3", ptr %3, i32 0, i32 0
  ret ptr %4
}

; Function Attrs: mustprogress nounwind uwtable
define linkonce_odr hidden noundef ptr @_ZNSt3__114pointer_traitsIPKcE10pointer_toB8ne190000ERS1_(ptr noundef nonnull align 1 dereferenceable(1) %0) #1 comdat align 2 {
  %2 = alloca ptr, align 8
  store ptr %0, ptr %2, align 8
  %3 = load ptr, ptr %2, align 8
  ret ptr %3
}

; Function Attrs: mustprogress nounwind uwtable
define linkonce_odr hidden noundef nonnull align 8 dereferenceable(24) ptr @_ZNKSt3__117__compressed_pairINS_12basic_stringIcNS_11char_traitsIcEENS_9allocatorIcEEE5__repES5_E5firstB8ne190000Ev(ptr noundef nonnull align 8 dereferenceable(24) %0) #1 comdat align 2 {
  %2 = alloca ptr, align 8
  store ptr %0, ptr %2, align 8
  %3 = load ptr, ptr %2, align 8
  %4 = call noundef nonnull align 8 dereferenceable(24) ptr @_ZNKSt3__122__compressed_pair_elemINS_12basic_stringIcNS_11char_traitsIcEENS_9allocatorIcEEE5__repELi0ELb0EE5__getB8ne190000Ev(ptr noundef nonnull align 8 dereferenceable(24) %3) #7
  ret ptr %4
}

; Function Attrs: mustprogress nounwind uwtable
define linkonce_odr hidden noundef ptr @_ZNKSt3__112basic_stringIcNS_11char_traitsIcEENS_9allocatorIcEEE19__get_short_pointerB8ne190000Ev(ptr noundef nonnull align 8 dereferenceable(24) %0) #1 comdat align 2 {
  %2 = alloca ptr, align 8
  store ptr %0, ptr %2, align 8
  %3 = load ptr, ptr %2, align 8
  %4 = getelementptr inbounds %"class.std::__1::basic_string", ptr %3, i32 0, i32 0
  %5 = call noundef nonnull align 8 dereferenceable(24) ptr @_ZNKSt3__117__compressed_pairINS_12basic_stringIcNS_11char_traitsIcEENS_9allocatorIcEEE5__repES5_E5firstB8ne190000Ev(ptr noundef nonnull align 8 dereferenceable(24) %4) #7
  %6 = getelementptr inbounds %"struct.std::__1::basic_string<char>::__rep", ptr %5, i32 0, i32 0
  %7 = getelementptr inbounds %"struct.std::__1::basic_string<char>::__short", ptr %6, i32 0, i32 2
  %8 = getelementptr inbounds [23 x i8], ptr %7, i64 0, i64 0
  %9 = call noundef ptr @_ZNSt3__114pointer_traitsIPKcE10pointer_toB8ne190000ERS1_(ptr noundef nonnull align 1 dereferenceable(1) %8) #7
  ret ptr %9
}

; Function Attrs: mustprogress nounwind uwtable
define linkonce_odr hidden noundef ptr @_ZNKSt3__112basic_stringIcNS_11char_traitsIcEENS_9allocatorIcEEE18__get_long_pointerB8ne190000Ev(ptr noundef nonnull align 8 dereferenceable(24) %0) #1 comdat align 2 {
  %2 = alloca ptr, align 8
  store ptr %0, ptr %2, align 8
  %3 = load ptr, ptr %2, align 8
  %4 = getelementptr inbounds %"class.std::__1::basic_string", ptr %3, i32 0, i32 0
  %5 = call noundef nonnull align 8 dereferenceable(24) ptr @_ZNKSt3__117__compressed_pairINS_12basic_stringIcNS_11char_traitsIcEENS_9allocatorIcEEE5__repES5_E5firstB8ne190000Ev(ptr noundef nonnull align 8 dereferenceable(24) %4) #7
  %6 = getelementptr inbounds %"struct.std::__1::basic_string<char>::__rep", ptr %5, i32 0, i32 0
  %7 = getelementptr inbounds %"struct.std::__1::basic_string<char>::__long", ptr %6, i32 0, i32 2
  %8 = load ptr, ptr %7, align 8
  ret ptr %8
}

; Function Attrs: mustprogress nounwind uwtable
define linkonce_odr hidden noundef i64 @_ZNKSt3__112basic_stringIcNS_11char_traitsIcEENS_9allocatorIcEEE16__get_short_sizeB8ne190000Ev(ptr noundef nonnull align 8 dereferenceable(24) %0) #1 comdat align 2 {
  %2 = alloca ptr, align 8
  store ptr %0, ptr %2, align 8
  %3 = load ptr, ptr %2, align 8
  %4 = getelementptr inbounds %"class.std::__1::basic_string", ptr %3, i32 0, i32 0
  %5 = call noundef nonnull align 8 dereferenceable(24) ptr @_ZNKSt3__117__compressed_pairINS_12basic_stringIcNS_11char_traitsIcEENS_9allocatorIcEEE5__repES5_E5firstB8ne190000Ev(ptr noundef nonnull align 8 dereferenceable(24) %4) #7
  %6 = getelementptr inbounds %"struct.std::__1::basic_string<char>::__rep", ptr %5, i32 0, i32 0
  %7 = getelementptr inbounds %"struct.std::__1::basic_string<char>::__short", ptr %6, i32 0, i32 0
  %8 = load i8, ptr %7, align 8
  %9 = lshr i8 %8, 1
  %10 = zext i8 %9 to i64
  ret i64 %10
}

; Function Attrs: mustprogress nounwind uwtable
define linkonce_odr hidden noundef i64 @_ZNKSt3__112basic_stringIcNS_11char_traitsIcEENS_9allocatorIcEEE15__get_long_sizeB8ne190000Ev(ptr noundef nonnull align 8 dereferenceable(24) %0) #1 comdat align 2 {
  %2 = alloca ptr, align 8
  store ptr %0, ptr %2, align 8
  %3 = load ptr, ptr %2, align 8
  %4 = getelementptr inbounds %"class.std::__1::basic_string", ptr %3, i32 0, i32 0
  %5 = call noundef nonnull align 8 dereferenceable(24) ptr @_ZNKSt3__117__compressed_pairINS_12basic_stringIcNS_11char_traitsIcEENS_9allocatorIcEEE5__repES5_E5firstB8ne190000Ev(ptr noundef nonnull align 8 dereferenceable(24) %4) #7
  %6 = getelementptr inbounds %"struct.std::__1::basic_string<char>::__rep", ptr %5, i32 0, i32 0
  %7 = getelementptr inbounds %"struct.std::__1::basic_string<char>::__long", ptr %6, i32 0, i32 1
  %8 = load i64, ptr %7, align 8
  ret i64 %8
}

; Function Attrs: mustprogress nounwind uwtable
define linkonce_odr hidden noundef zeroext i1 @_ZNKSt3__112basic_stringIcNS_11char_traitsIcEENS_9allocatorIcEEE9__is_longB8ne190000Ev(ptr noundef nonnull align 8 dereferenceable(24) %0) #1 comdat align 2 {
  %2 = alloca ptr, align 8
  store ptr %0, ptr %2, align 8
  %3 = load ptr, ptr %2, align 8
  %4 = getelementptr inbounds %"class.std::__1::basic_string", ptr %3, i32 0, i32 0
  %5 = call noundef nonnull align 8 dereferenceable(24) ptr @_ZNKSt3__117__compressed_pairINS_12basic_stringIcNS_11char_traitsIcEENS_9allocatorIcEEE5__repES5_E5firstB8ne190000Ev(ptr noundef nonnull align 8 dereferenceable(24) %4) #7
  %6 = getelementptr inbounds %"struct.std::__1::basic_string<char>::__rep", ptr %5, i32 0, i32 0
  %7 = getelementptr inbounds %"struct.std::__1::basic_string<char>::__short", ptr %6, i32 0, i32 0
  %8 = load i8, ptr %7, align 8
  %9 = and i8 %8, 1
  %10 = icmp ne i8 %9, 0
  ret i1 %10
}

; Function Attrs: mustprogress nounwind uwtable
define linkonce_odr hidden noundef ptr @_ZNSt3__112__to_addressB8ne190000IKcEEPT_S3_(ptr noundef %0) #1 comdat {
  %2 = alloca ptr, align 8
  store ptr %0, ptr %2, align 8
  %3 = load ptr, ptr %2, align 8
  ret ptr %3
}

; Function Attrs: mustprogress nounwind uwtable
define linkonce_odr hidden noundef ptr @_ZNKSt3__112basic_stringIcNS_11char_traitsIcEENS_9allocatorIcEEE13__get_pointerB8ne190000Ev(ptr noundef nonnull align 8 dereferenceable(24) %0) #1 comdat align 2 {
  %2 = alloca ptr, align 8
  store ptr %0, ptr %2, align 8
  %3 = load ptr, ptr %2, align 8
  %4 = call noundef zeroext i1 @_ZNKSt3__112basic_stringIcNS_11char_traitsIcEENS_9allocatorIcEEE9__is_longB8ne190000Ev(ptr noundef nonnull align 8 dereferenceable(24) %3) #7
  br i1 %4, label %5, label %7

5:                                                ; preds = %1
  %6 = call noundef ptr @_ZNKSt3__112basic_stringIcNS_11char_traitsIcEENS_9allocatorIcEEE18__get_long_pointerB8ne190000Ev(ptr noundef nonnull align 8 dereferenceable(24) %3) #7
  br label %9

7:                                                ; preds = %1
  %8 = call noundef ptr @_ZNKSt3__112basic_stringIcNS_11char_traitsIcEENS_9allocatorIcEEE19__get_short_pointerB8ne190000Ev(ptr noundef nonnull align 8 dereferenceable(24) %3) #7
  br label %9

9:                                                ; preds = %7, %5
  %10 = phi ptr [ %6, %5 ], [ %8, %7 ]
  ret ptr %10
}

; Function Attrs: mustprogress nounwind uwtable
define linkonce_odr hidden noundef i64 @_ZNKSt3__113__scalar_hashIdLm1EEclB8ne190000Ed(ptr noundef nonnull align 1 dereferenceable(1) %0, double noundef %1) #1 comdat align 2 {
  %3 = alloca ptr, align 8
  %4 = alloca double, align 8
  %5 = alloca %union.anon.119, align 8
  store ptr %0, ptr %3, align 8
  store double %1, ptr %4, align 8
  %6 = load double, ptr %4, align 8
  store double %6, ptr %5, align 8
  %7 = load i64, ptr %5, align 8
  ret i64 %7
}

; Function Attrs: mustprogress uwtable
define linkonce_odr hidden noundef i64 @_ZNSt3__116__do_string_hashB8ne190000IPKcEEmT_S3_(ptr noundef %0, ptr noundef %1) #0 comdat {
  %3 = alloca ptr, align 8
  %4 = alloca ptr, align 8
  %5 = alloca %"struct.std::__1::__murmur2_or_cityhash", align 1
  store ptr %0, ptr %3, align 8
  store ptr %1, ptr %4, align 8
  %6 = load ptr, ptr %3, align 8
  %7 = load ptr, ptr %4, align 8
  %8 = load ptr, ptr %3, align 8
  %9 = ptrtoint ptr %7 to i64
  %10 = ptrtoint ptr %8 to i64
  %11 = sub i64 %9, %10
  %12 = mul i64 %11, 1
  %13 = call noundef i64 @_ZNKSt3__121__murmur2_or_cityhashImLm64EEclB8ne190000EPKvm(ptr noundef nonnull align 1 dereferenceable(1) %5, ptr noundef %6, i64 noundef %12)
  ret i64 %13
}

; Function Attrs: mustprogress nounwind uwtable
define linkonce_odr hidden noundef i64 @_ZNKSt3__112basic_stringIcNS_11char_traitsIcEENS_9allocatorIcEEE4sizeB8ne190000Ev(ptr noundef nonnull align 8 dereferenceable(24) %0) #1 comdat align 2 {
  %2 = alloca ptr, align 8
  store ptr %0, ptr %2, align 8
  %3 = load ptr, ptr %2, align 8
  %4 = call noundef zeroext i1 @_ZNKSt3__112basic_stringIcNS_11char_traitsIcEENS_9allocatorIcEEE9__is_longB8ne190000Ev(ptr noundef nonnull align 8 dereferenceable(24) %3) #7
  br i1 %4, label %5, label %7

5:                                                ; preds = %1
  %6 = call noundef i64 @_ZNKSt3__112basic_stringIcNS_11char_traitsIcEENS_9allocatorIcEEE15__get_long_sizeB8ne190000Ev(ptr noundef nonnull align 8 dereferenceable(24) %3) #7
  br label %9

7:                                                ; preds = %1
  %8 = call noundef i64 @_ZNKSt3__112basic_stringIcNS_11char_traitsIcEENS_9allocatorIcEEE16__get_short_sizeB8ne190000Ev(ptr noundef nonnull align 8 dereferenceable(24) %3) #7
  br label %9

9:                                                ; preds = %7, %5
  %10 = phi i64 [ %6, %5 ], [ %8, %7 ]
  ret i64 %10
}

; Function Attrs: mustprogress nounwind uwtable
define linkonce_odr hidden noundef ptr @_ZNKSt3__112basic_stringIcNS_11char_traitsIcEENS_9allocatorIcEEE4dataB8ne190000Ev(ptr noundef nonnull align 8 dereferenceable(24) %0) #1 comdat align 2 {
  %2 = alloca ptr, align 8
  store ptr %0, ptr %2, align 8
  %3 = load ptr, ptr %2, align 8
  %4 = call noundef ptr @_ZNKSt3__112basic_stringIcNS_11char_traitsIcEENS_9allocatorIcEEE13__get_pointerB8ne190000Ev(ptr noundef nonnull align 8 dereferenceable(24) %3) #7
  %5 = call noundef ptr @_ZNSt3__112__to_addressB8ne190000IKcEEPT_S3_(ptr noundef %4) #7
  ret ptr %5
}

; Function Attrs: mustprogress nounwind uwtable
define linkonce_odr hidden noundef i64 @_ZNKSt3__14hashIdEclB8ne190000Ed(ptr noundef nonnull align 1 dereferenceable(1) %0, double noundef %1) #1 comdat align 2 {
  %3 = alloca i64, align 8
  %4 = alloca ptr, align 8
  %5 = alloca double, align 8
  store ptr %0, ptr %4, align 8
  store double %1, ptr %5, align 8
  %6 = load ptr, ptr %4, align 8
  %7 = load double, ptr %5, align 8
  %8 = fcmp contract oeq double %7, 0.000000e+00
  br i1 %8, label %9, label %10

9:                                                ; preds = %2
  store i64 0, ptr %3, align 8
  br label %13

10:                                               ; preds = %2
  %11 = load double, ptr %5, align 8
  %12 = call noundef i64 @_ZNKSt3__113__scalar_hashIdLm1EEclB8ne190000Ed(ptr noundef nonnull align 1 dereferenceable(1) %6, double noundef %11) #7
  store i64 %12, ptr %3, align 8
  br label %13

13:                                               ; preds = %10, %9
  %14 = load i64, ptr %3, align 8
  ret i64 %14
}

; Function Attrs: mustprogress nounwind uwtable
define linkonce_odr hidden noundef i64 @_ZNKSt3__14hashIjEclB8ne190000Ej(ptr noundef nonnull align 1 dereferenceable(1) %0, i32 noundef %1) #1 comdat align 2 {
  %3 = alloca ptr, align 8
  %4 = alloca i32, align 4
  store ptr %0, ptr %3, align 8
  store i32 %1, ptr %4, align 4
  %5 = load i32, ptr %4, align 4
  %6 = zext i32 %5 to i64
  ret i64 %6
}

; Function Attrs: mustprogress nounwind uwtable
define linkonce_odr hidden noundef i64 @_ZNKSt3__14hashImEclB8ne190000Em(ptr noundef nonnull align 1 dereferenceable(1) %0, i64 noundef %1) #1 comdat align 2 {
  %3 = alloca ptr, align 8
  %4 = alloca i64, align 8
  store ptr %0, ptr %3, align 8
  store i64 %1, ptr %4, align 8
  %5 = load i64, ptr %4, align 8
  ret i64 %5
}

; Function Attrs: mustprogress nounwind uwtable
define linkonce_odr hidden noundef i64 @_ZNKSt3__113__string_hashIcNS_9allocatorIcEEEclB8ne190000ERKNS_12basic_stringIcNS_11char_traitsIcEES2_EE(ptr noundef nonnull align 1 dereferenceable(1) %0, ptr noundef nonnull align 8 dereferenceable(24) %1) #1 comdat align 2 personality ptr @__gxx_personality_v0 {
  %3 = alloca ptr, align 8
  %4 = alloca ptr, align 8
  store ptr %0, ptr %3, align 8
  store ptr %1, ptr %4, align 8
  %5 = load ptr, ptr %4, align 8
  %6 = call noundef ptr @_ZNKSt3__112basic_stringIcNS_11char_traitsIcEENS_9allocatorIcEEE4dataB8ne190000Ev(ptr noundef nonnull align 8 dereferenceable(24) %5) #7
  %7 = load ptr, ptr %4, align 8
  %8 = call noundef ptr @_ZNKSt3__112basic_stringIcNS_11char_traitsIcEENS_9allocatorIcEEE4dataB8ne190000Ev(ptr noundef nonnull align 8 dereferenceable(24) %7) #7
  %9 = load ptr, ptr %4, align 8
  %10 = call noundef i64 @_ZNKSt3__112basic_stringIcNS_11char_traitsIcEENS_9allocatorIcEEE4sizeB8ne190000Ev(ptr noundef nonnull align 8 dereferenceable(24) %9) #7
  %11 = getelementptr inbounds i8, ptr %8, i64 %10
  %12 = invoke noundef i64 @_ZNSt3__116__do_string_hashB8ne190000IPKcEEmT_S3_(ptr noundef %6, ptr noundef %11)
          to label %13 unwind label %14

13:                                               ; preds = %2
  ret i64 %12

14:                                               ; preds = %2
  %15 = landingpad { ptr, i32 }
          catch ptr null
  %16 = extractvalue { ptr, i32 } %15, 0
  call void @__clang_call_terminate(ptr %16) #20
  unreachable
}

; Function Attrs: mustprogress nounwind uwtable
define linkonce_odr hidden noundef i64 @_ZN7mitsuba4hashIdTnNSt3__19enable_ifIXntsr3stdE9is_enum_vIT_EEiE4typeELi0EEEmRKS3_(ptr noundef nonnull align 8 dereferenceable(8) %0) #1 comdat {
  %2 = alloca ptr, align 8
  %3 = alloca %"struct.std::__1::hash.117", align 1
  store ptr %0, ptr %2, align 8
  %4 = load ptr, ptr %2, align 8
  %5 = load double, ptr %4, align 8
  %6 = call noundef i64 @_ZNKSt3__14hashIdEclB8ne190000Ed(ptr noundef nonnull align 1 dereferenceable(1) %3, double noundef %5) #7
  ret i64 %6
}

; Function Attrs: mustprogress nounwind uwtable
define linkonce_odr hidden noundef i64 @_ZN7mitsuba4hashIjTnNSt3__19enable_ifIXntsr3stdE9is_enum_vIT_EEiE4typeELi0EEEmRKS3_(ptr noundef nonnull align 4 dereferenceable(4) %0) #1 comdat {
  %2 = alloca ptr, align 8
  %3 = alloca %"struct.std::__1::hash.115", align 1
  store ptr %0, ptr %2, align 8
  %4 = load ptr, ptr %2, align 8
  %5 = load i32, ptr %4, align 4
  %6 = call noundef i64 @_ZNKSt3__14hashIjEclB8ne190000Ej(ptr noundef nonnull align 1 dereferenceable(1) %3, i32 noundef %5) #7
  ret i64 %6
}

; Function Attrs: mustprogress nounwind uwtable
define linkonce_odr hidden noundef i64 @_ZN7mitsuba4hashImTnNSt3__19enable_ifIXntsr3stdE9is_enum_vIT_EEiE4typeELi0EEEmRKS3_(ptr noundef nonnull align 8 dereferenceable(8) %0) #1 comdat {
  %2 = alloca ptr, align 8
  %3 = alloca %"struct.std::__1::hash.113", align 1
  store ptr %0, ptr %2, align 8
  %4 = load ptr, ptr %2, align 8
  %5 = load i64, ptr %4, align 8
  %6 = call noundef i64 @_ZNKSt3__14hashImEclB8ne190000Em(ptr noundef nonnull align 1 dereferenceable(1) %3, i64 noundef %5) #7
  ret i64 %6
}

; Function Attrs: mustprogress nounwind uwtable
define linkonce_odr hidden noundef i64 @_ZN7mitsuba12hash_combineEmm(i64 noundef %0, i64 noundef %1) #1 comdat {
  %3 = alloca i64, align 8
  %4 = alloca i64, align 8
  store i64 %0, ptr %3, align 8
  store i64 %1, ptr %4, align 8
  %5 = load i64, ptr %4, align 8
  %6 = load i64, ptr %3, align 8
  %7 = add i64 %6, 2654435769
  %8 = load i64, ptr %4, align 8
  %9 = shl i64 %8, 6
  %10 = add i64 %7, %9
  %11 = load i64, ptr %4, align 8
  %12 = lshr i64 %11, 2
  %13 = add i64 %10, %12
  %14 = xor i64 %5, %13
  ret i64 %14
}

; Function Attrs: mustprogress uwtable
define linkonce_odr hidden noundef i64 @_ZN7mitsuba4hashINS_6Struct4TypeETnNSt3__19enable_ifIXsr3stdE9is_enum_vIT_EEiE4typeELi0EEEmRKS5_(ptr noundef nonnull align 4 dereferenceable(4) %0) #0 comdat {
  %2 = alloca ptr, align 8
  %3 = alloca i32, align 4
  store ptr %0, ptr %2, align 8
  %4 = load ptr, ptr %2, align 8
  %5 = load i32, ptr %4, align 4
  store i32 %5, ptr %3, align 4
  %6 = call noundef i64 @_ZN7mitsuba4hashIjTnNSt3__19enable_ifIXntsr3stdE9is_enum_vIT_EEiE4typeELi0EEEmRKS3_(ptr noundef nonnull align 4 dereferenceable(4) %3)
  ret i64 %6
}

; Function Attrs: mustprogress nounwind uwtable
define linkonce_odr hidden noundef i64 @_ZN7mitsuba4hashINSt3__112basic_stringIcNS1_11char_traitsIcEENS1_9allocatorIcEEEETnNS1_9enable_ifIXntsr3stdE9is_enum_vIT_EEiE4typeELi0EEEmRKS9_(ptr noundef nonnull align 8 dereferenceable(24) %0) #1 comdat {
  %2 = alloca ptr, align 8
  %3 = alloca %"struct.std::__1::hash", align 1
  store ptr %0, ptr %2, align 8
  %4 = load ptr, ptr %2, align 8
  %5 = call noundef i64 @_ZNKSt3__113__string_hashIcNS_9allocatorIcEEEclB8ne190000ERKNS_12basic_stringIcNS_11char_traitsIcEES2_EE(ptr noundef nonnull align 1 dereferenceable(1) %3, ptr noundef nonnull align 8 dereferenceable(24) %4) #7
  ret i64 %5
}

; Function Attrs: mustprogress uwtable
define noundef i64 @_ZN7mitsuba4hashERKNS_6Struct5FieldE(ptr noundef nonnull align 8 dereferenceable(88) %0) #0 {
  %2 = alloca ptr, align 8
  %3 = alloca i64, align 8
  store ptr %0, ptr %2, align 8
  %4 = load ptr, ptr %2, align 8
  %5 = getelementptr inbounds %"struct.mitsuba::Struct::Field", ptr %4, i32 0, i32 0
  %6 = call noundef i64 @_ZN7mitsuba4hashINSt3__112basic_stringIcNS1_11char_traitsIcEENS1_9allocatorIcEEEETnNS1_9enable_ifIXntsr3stdE9is_enum_vIT_EEiE4typeELi0EEEmRKS9_(ptr noundef nonnull align 8 dereferenceable(24) %5)
  store i64 %6, ptr %3, align 8
  %7 = load i64, ptr %3, align 8
  %8 = load ptr, ptr %2, align 8
  %9 = getelementptr inbounds %"struct.mitsuba::Struct::Field", ptr %8, i32 0, i32 1
  %10 = call noundef i64 @_ZN7mitsuba4hashINS_6Struct4TypeETnNSt3__19enable_ifIXsr3stdE9is_enum_vIT_EEiE4typeELi0EEEmRKS5_(ptr noundef nonnull align 4 dereferenceable(4) %9)
  %11 = call noundef i64 @_ZN7mitsuba12hash_combineEmm(i64 noundef %7, i64 noundef %10)
  store i64 %11, ptr %3, align 8
  %12 = load i64, ptr %3, align 8
  %13 = load ptr, ptr %2, align 8
  %14 = getelementptr inbounds %"struct.mitsuba::Struct::Field", ptr %13, i32 0, i32 2
  %15 = call noundef i64 @_ZN7mitsuba4hashImTnNSt3__19enable_ifIXntsr3stdE9is_enum_vIT_EEiE4typeELi0EEEmRKS3_(ptr noundef nonnull align 8 dereferenceable(8) %14)
  %16 = call noundef i64 @_ZN7mitsuba12hash_combineEmm(i64 noundef %12, i64 noundef %15)
  store i64 %16, ptr %3, align 8
  %17 = load i64, ptr %3, align 8
  %18 = load ptr, ptr %2, align 8
  %19 = getelementptr inbounds %"struct.mitsuba::Struct::Field", ptr %18, i32 0, i32 3
  %20 = call noundef i64 @_ZN7mitsuba4hashImTnNSt3__19enable_ifIXntsr3stdE9is_enum_vIT_EEiE4typeELi0EEEmRKS3_(ptr noundef nonnull align 8 dereferenceable(8) %19)
  %21 = call noundef i64 @_ZN7mitsuba12hash_combineEmm(i64 noundef %17, i64 noundef %20)
  store i64 %21, ptr %3, align 8
  %22 = load i64, ptr %3, align 8
  %23 = load ptr, ptr %2, align 8
  %24 = getelementptr inbounds %"struct.mitsuba::Struct::Field", ptr %23, i32 0, i32 4
  %25 = call noundef i64 @_ZN7mitsuba4hashIjTnNSt3__19enable_ifIXntsr3stdE9is_enum_vIT_EEiE4typeELi0EEEmRKS3_(ptr noundef nonnull align 4 dereferenceable(4) %24)
  %26 = call noundef i64 @_ZN7mitsuba12hash_combineEmm(i64 noundef %22, i64 noundef %25)
  store i64 %26, ptr %3, align 8
  %27 = load i64, ptr %3, align 8
  %28 = load ptr, ptr %2, align 8
  %29 = getelementptr inbounds %"struct.mitsuba::Struct::Field", ptr %28, i32 0, i32 5
  %30 = call noundef i64 @_ZN7mitsuba4hashIdTnNSt3__19enable_ifIXntsr3stdE9is_enum_vIT_EEiE4typeELi0EEEmRKS3_(ptr noundef nonnull align 8 dereferenceable(8) %29)
  %31 = call noundef i64 @_ZN7mitsuba12hash_combineEmm(i64 noundef %27, i64 noundef %30)
  store i64 %31, ptr %3, align 8
  %32 = load i64, ptr %3, align 8
  ret i64 %32
}