; Function Attrs: mustprogress nounwind uwtable
define noundef i64 @_ZN7mitsuba4hashERKNS_6Struct5FieldE(ptr noundef nonnull align 8 dereferenceable(88) %0) local_unnamed_addr #7 personality ptr @__gxx_personality_v0 {
  %2 = alloca %"struct.std::__1::__murmur2_or_cityhash", align 1
  %3 = load i8, ptr %0, align 8
  %4 = and i8 %3, 1
  %.not.i.i.i.i = icmp eq i8 %4, 0
  %5 = getelementptr inbounds i8, ptr %0, i64 16
  %6 = load ptr, ptr %5, align 8
  %7 = getelementptr inbounds i8, ptr %0, i64 1
  %8 = select i1 %.not.i.i.i.i, ptr %7, ptr %6
  %9 = getelementptr inbounds i8, ptr %0, i64 8
  %10 = load i64, ptr %9, align 8
  %11 = lshr i8 %3, 1
  %12 = zext nneg i8 %11 to i64
  %13 = select i1 %.not.i.i.i.i, i64 %12, i64 %10
  call void @llvm.lifetime.start.p0(i64 1, ptr nonnull %2)
  %14 = invoke noundef i64 @_ZNKSt3__121__murmur2_or_cityhashImLm64EEclB8ne190000EPKvm(ptr noundef nonnull align 1 dereferenceable(1) %2, ptr noundef %8, i64 noundef %13)
          to label %_ZN7mitsuba4hashINSt3__112basic_stringIcNS1_11char_traitsIcEENS1_9allocatorIcEEEETnNS1_9enable_ifIXntsr3stdE9is_enum_vIT_EEiE4typeELi0EEEmRKS9_.exit unwind label %15

15:                                               ; preds = %1
  %16 = landingpad { ptr, i32 }
          catch ptr null
  %17 = extractvalue { ptr, i32 } %16, 0
  call void @__clang_call_terminate(ptr %17) #29
  unreachable

_ZN7mitsuba4hashINSt3__112basic_stringIcNS1_11char_traitsIcEENS1_9allocatorIcEEEETnNS1_9enable_ifIXntsr3stdE9is_enum_vIT_EEiE4typeELi0EEEmRKS9_.exit: ; preds = %1
  call void @llvm.lifetime.end.p0(i64 1, ptr nonnull %2)
  %18 = getelementptr inbounds i8, ptr %0, i64 24
  %19 = load i32, ptr %18, align 8
  %20 = zext i32 %19 to i64
  %21 = add i64 %14, 2654435769
  %22 = shl nuw nsw i64 %20, 6
  %23 = add i64 %21, %22
  %24 = lshr i64 %20, 2
  %25 = add i64 %23, %24
  %26 = xor i64 %25, %20
  %27 = getelementptr inbounds i8, ptr %0, i64 32
  %28 = load i64, ptr %27, align 8
  %29 = shl i64 %28, 6
  %30 = lshr i64 %28, 2
  %31 = add i64 %29, 2654435769
  %32 = add i64 %31, %30
  %33 = add i64 %32, %26
  %34 = xor i64 %33, %28
  %35 = getelementptr inbounds i8, ptr %0, i64 40
  %36 = load i64, ptr %35, align 8
  %37 = shl i64 %36, 6
  %38 = lshr i64 %36, 2
  %39 = add i64 %37, 2654435769
  %40 = add i64 %39, %38
  %41 = add i64 %40, %34
  %42 = xor i64 %41, %36
  %43 = getelementptr inbounds i8, ptr %0, i64 48
  %44 = load i32, ptr %43, align 8
  %45 = zext i32 %44 to i64
  %46 = shl nuw nsw i64 %45, 6
  %47 = lshr i64 %45, 2
  %48 = add nuw nsw i64 %46, 2654435769
  %49 = add nuw nsw i64 %48, %47
  %50 = add i64 %49, %42
  %51 = xor i64 %50, %45
  %52 = getelementptr inbounds i8, ptr %0, i64 56
  %53 = load double, ptr %52, align 8
  %54 = fcmp contract oeq double %53, 0.000000e+00
  %55 = bitcast double %53 to i64
  %.0.i.i = select i1 %54, i64 0, i64 %55
  %56 = shl i64 %.0.i.i, 6
  %57 = lshr i64 %.0.i.i, 2
  %58 = add i64 %56, 2654435769
  %59 = add i64 %58, %57
  %60 = add i64 %59, %51
  %61 = xor i64 %60, %.0.i.i
  ret i64 %61
}